target datalayout = "e-m:e-p270:32:32-p271:32:32-p272:64:64-i64:64-i128:128-f80:128-n8:16:32:64-S128"
target triple = "x86_64-pc-linux-gnu"

; Function Attrs: nounwind uwtable
define internal void @RD4_C(ptr noundef %0) #0 {
  %2 = alloca ptr, align 8
  %3 = alloca i32, align 4
  %4 = alloca i32, align 4
  %5 = alloca i32, align 4
  %6 = alloca i32, align 4
  %7 = alloca i32, align 4
  %8 = alloca i32, align 4
  %9 = alloca i32, align 4
  %10 = alloca i32, align 4
  %11 = alloca i32, align 4
  store ptr %0, ptr %2, align 8, !tbaa !16
  call void @llvm.lifetime.start.p0(i64 4, ptr %3) #7
  %12 = load ptr, ptr %2, align 8, !tbaa !16
  %13 = getelementptr inbounds i8, ptr %12, i64 -1
  %14 = load i8, ptr %13, align 1, !tbaa !18
  %15 = zext i8 %14 to i32
  store i32 %15, ptr %3, align 4, !tbaa !9
  call void @llvm.lifetime.start.p0(i64 4, ptr %4) #7
  %16 = load ptr, ptr %2, align 8, !tbaa !16
  %17 = getelementptr inbounds i8, ptr %16, i64 31
  %18 = load i8, ptr %17, align 1, !tbaa !18
  %19 = zext i8 %18 to i32
  store i32 %19, ptr %4, align 4, !tbaa !9
  call void @llvm.lifetime.start.p0(i64 4, ptr %5) #7
  %20 = load ptr, ptr %2, align 8, !tbaa !16
  %21 = getelementptr inbounds i8, ptr %20, i64 63
  %22 = load i8, ptr %21, align 1, !tbaa !18
  %23 = zext i8 %22 to i32
  store i32 %23, ptr %5, align 4, !tbaa !9
  call void @llvm.lifetime.start.p0(i64 4, ptr %6) #7
  %24 = load ptr, ptr %2, align 8, !tbaa !16
  %25 = getelementptr inbounds i8, ptr %24, i64 95
  %26 = load i8, ptr %25, align 1, !tbaa !18
  %27 = zext i8 %26 to i32
  store i32 %27, ptr %6, align 4, !tbaa !9
  call void @llvm.lifetime.start.p0(i64 4, ptr %7) #7
  %28 = load ptr, ptr %2, align 8, !tbaa !16
  %29 = getelementptr inbounds i8, ptr %28, i64 -33
  %30 = load i8, ptr %29, align 1, !tbaa !18
  %31 = zext i8 %30 to i32
  store i32 %31, ptr %7, align 4, !tbaa !9
  call void @llvm.lifetime.start.p0(i64 4, ptr %8) #7
  %32 = load ptr, ptr %2, align 8, !tbaa !16
  %33 = getelementptr inbounds i8, ptr %32, i64 -32
  %34 = load i8, ptr %33, align 1, !tbaa !18
  %35 = zext i8 %34 to i32
  store i32 %35, ptr %8, align 4, !tbaa !9
  call void @llvm.lifetime.start.p0(i64 4, ptr %9) #7
  %36 = load ptr, ptr %2, align 8, !tbaa !16
  %37 = getelementptr inbounds i8, ptr %36, i64 -31
  %38 = load i8, ptr %37, align 1, !tbaa !18
  %39 = zext i8 %38 to i32
  store i32 %39, ptr %9, align 4, !tbaa !9
  call void @llvm.lifetime.start.p0(i64 4, ptr %10) #7
  %40 = load ptr, ptr %2, align 8, !tbaa !16
  %41 = getelementptr inbounds i8, ptr %40, i64 -30
  %42 = load i8, ptr %41, align 1, !tbaa !18
  %43 = zext i8 %42 to i32
  store i32 %43, ptr %10, align 4, !tbaa !9
  call void @llvm.lifetime.start.p0(i64 4, ptr %11) #7
  %44 = load ptr, ptr %2, align 8, !tbaa !16
  %45 = getelementptr inbounds i8, ptr %44, i64 -29
  %46 = load i8, ptr %45, align 1, !tbaa !18
  %47 = zext i8 %46 to i32
  store i32 %47, ptr %11, align 4, !tbaa !9
  %48 = load i32, ptr %4, align 4, !tbaa !9
  %49 = load i32, ptr %5, align 4, !tbaa !9
  %50 = mul nsw i32 2, %49
  %51 = add nsw i32 %48, %50
  %52 = load i32, ptr %6, align 4, !tbaa !9
  %53 = add nsw i32 %51, %52
  %54 = add nsw i32 %53, 2
  %55 = ashr i32 %54, 2
  %56 = trunc i32 %55 to i8
  %57 = load ptr, ptr %2, align 8, !tbaa !16
  %58 = getelementptr inbounds i8, ptr %57, i64 96
  store i8 %56, ptr %58, align 1, !tbaa !18
  %59 = load i32, ptr %3, align 4, !tbaa !9
  %60 = load i32, ptr %4, align 4, !tbaa !9
  %61 = mul nsw i32 2, %60
  %62 = add nsw i32 %59, %61
  %63 = load i32, ptr %5, align 4, !tbaa !9
  %64 = add nsw i32 %62, %63
  %65 = add nsw i32 %64, 2
  %66 = ashr i32 %65, 2
  %67 = trunc i32 %66 to i8
  %68 = load ptr, ptr %2, align 8, !tbaa !16
  %69 = getelementptr inbounds i8, ptr %68, i64 64
  store i8 %67, ptr %69, align 1, !tbaa !18
  %70 = load ptr, ptr %2, align 8, !tbaa !16
  %71 = getelementptr inbounds i8, ptr %70, i64 97
  store i8 %67, ptr %71, align 1, !tbaa !18
  %72 = load i32, ptr %7, align 4, !tbaa !9
  %73 = load i32, ptr %3, align 4, !tbaa !9
  %74 = mul nsw i32 2, %73
  %75 = add nsw i32 %72, %74
  %76 = load i32, ptr %4, align 4, !tbaa !9
  %77 = add nsw i32 %75, %76
  %78 = add nsw i32 %77, 2
  %79 = ashr i32 %78, 2
  %80 = trunc i32 %79 to i8
  %81 = load ptr, ptr %2, align 8, !tbaa !16
  %82 = getelementptr inbounds i8, ptr %81, i64 32
  store i8 %80, ptr %82, align 1, !tbaa !18
  %83 = load ptr, ptr %2, align 8, !tbaa !16
  %84 = getelementptr inbounds i8, ptr %83, i64 65
  store i8 %80, ptr %84, align 1, !tbaa !18
  %85 = load ptr, ptr %2, align 8, !tbaa !16
  %86 = getelementptr inbounds i8, ptr %85, i64 98
  store i8 %80, ptr %86, align 1, !tbaa !18
  %87 = load i32, ptr %8, align 4, !tbaa !9
  %88 = load i32, ptr %7, align 4, !tbaa !9
  %89 = mul nsw i32 2, %88
  %90 = add nsw i32 %87, %89
  %91 = load i32, ptr %3, align 4, !tbaa !9
  %92 = add nsw i32 %90, %91
  %93 = add nsw i32 %92, 2
  %94 = ashr i32 %93, 2
  %95 = trunc i32 %94 to i8
  %96 = load ptr, ptr %2, align 8, !tbaa !16
  %97 = getelementptr inbounds i8, ptr %96, i64 0
  store i8 %95, ptr %97, align 1, !tbaa !18
  %98 = load ptr, ptr %2, align 8, !tbaa !16
  %99 = getelementptr inbounds i8, ptr %98, i64 33
  store i8 %95, ptr %99, align 1, !tbaa !18
  %100 = load ptr, ptr %2, align 8, !tbaa !16
  %101 = getelementptr inbounds i8, ptr %100, i64 66
  store i8 %95, ptr %101, align 1, !tbaa !18
  %102 = load ptr, ptr %2, align 8, !tbaa !16
  %103 = getelementptr inbounds i8, ptr %102, i64 99
  store i8 %95, ptr %103, align 1, !tbaa !18
  %104 = load i32, ptr %9, align 4, !tbaa !9
  %105 = load i32, ptr %8, align 4, !tbaa !9
  %106 = mul nsw i32 2, %105
  %107 = add nsw i32 %104, %106
  %108 = load i32, ptr %7, align 4, !tbaa !9
  %109 = add nsw i32 %107, %108
  %110 = add nsw i32 %109, 2
  %111 = ashr i32 %110, 2
  %112 = trunc i32 %111 to i8
  %113 = load ptr, ptr %2, align 8, !tbaa !16
  %114 = getelementptr inbounds i8, ptr %113, i64 1
  store i8 %112, ptr %114, align 1, !tbaa !18
  %115 = load ptr, ptr %2, align 8, !tbaa !16
  %116 = getelementptr inbounds i8, ptr %115, i64 34
  store i8 %112, ptr %116, align 1, !tbaa !18
  %117 = load ptr, ptr %2, align 8, !tbaa !16
  %118 = getelementptr inbounds i8, ptr %117, i64 67
  store i8 %112, ptr %118, align 1, !tbaa !18
  %119 = load i32, ptr %10, align 4, !tbaa !9
  %120 = load i32, ptr %9, align 4, !tbaa !9
  %121 = mul nsw i32 2, %120
  %122 = add nsw i32 %119, %121
  %123 = load i32, ptr %8, align 4, !tbaa !9
  %124 = add nsw i32 %122, %123
  %125 = add nsw i32 %124, 2
  %126 = ashr i32 %125, 2
  %127 = trunc i32 %126 to i8
  %128 = load ptr, ptr %2, align 8, !tbaa !16
  %129 = getelementptr inbounds i8, ptr %128, i64 2
  store i8 %127, ptr %129, align 1, !tbaa !18
  %130 = load ptr, ptr %2, align 8, !tbaa !16
  %131 = getelementptr inbounds i8, ptr %130, i64 35
  store i8 %127, ptr %131, align 1, !tbaa !18
  %132 = load i32, ptr %11, align 4, !tbaa !9
  %133 = load i32, ptr %10, align 4, !tbaa !9
  %134 = mul nsw i32 2, %133
  %135 = add nsw i32 %132, %134
  %136 = load i32, ptr %9, align 4, !tbaa !9
  %137 = add nsw i32 %135, %136
  %138 = add nsw i32 %137, 2
  %139 = ashr i32 %138, 2
  %140 = trunc i32 %139 to i8
  %141 = load ptr, ptr %2, align 8, !tbaa !16
  %142 = getelementptr inbounds i8, ptr %141, i64 3
  store i8 %140, ptr %142, align 1, !tbaa !18
  call void @llvm.lifetime.end.p0(i64 4, ptr %11) #7
  call void @llvm.lifetime.end.p0(i64 4, ptr %10) #7
  call void @llvm.lifetime.end.p0(i64 4, ptr %9) #7
  call void @llvm.lifetime.end.p0(i64 4, ptr %8) #7
  call void @llvm.lifetime.end.p0(i64 4, ptr %7) #7
  call void @llvm.lifetime.end.p0(i64 4, ptr %6) #7
  call void @llvm.lifetime.end.p0(i64 4, ptr %5) #7
  call void @llvm.lifetime.end.p0(i64 4, ptr %4) #7
  call void @llvm.lifetime.end.p0(i64 4, ptr %3) #7
  ret void
}