; Function Attrs: mustprogress nofree norecurse nosync nounwind willreturn memory(argmem: readwrite) uwtable
define internal void @RD4_C(ptr noundef captures(none) initializes((0, 4), (32, 36), (64, 68), (96, 100)) %0) #4 {
  %2 = getelementptr inbounds i8, ptr %0, i64 -1
  %3 = load i8, ptr %2, align 1, !tbaa !14
  %4 = zext i8 %3 to i32
  %5 = getelementptr inbounds nuw i8, ptr %0, i64 31
  %6 = load i8, ptr %5, align 1, !tbaa !14
  %7 = zext i8 %6 to i32
  %8 = getelementptr inbounds nuw i8, ptr %0, i64 63
  %9 = load i8, ptr %8, align 1, !tbaa !14
  %10 = zext i8 %9 to i32
  %11 = getelementptr inbounds nuw i8, ptr %0, i64 95
  %12 = load i8, ptr %11, align 1, !tbaa !14
  %13 = zext i8 %12 to i32
  %14 = getelementptr inbounds i8, ptr %0, i64 -33
  %15 = load i8, ptr %14, align 1, !tbaa !14
  %16 = zext i8 %15 to i32
  %17 = getelementptr inbounds i8, ptr %0, i64 -32
  %18 = load i8, ptr %17, align 1, !tbaa !14
  %19 = zext i8 %18 to i32
  %20 = getelementptr inbounds i8, ptr %0, i64 -31
  %21 = load i8, ptr %20, align 1, !tbaa !14
  %22 = zext i8 %21 to i32
  %23 = getelementptr inbounds i8, ptr %0, i64 -30
  %24 = load i8, ptr %23, align 1, !tbaa !14
  %25 = zext i8 %24 to i32
  %26 = getelementptr inbounds i8, ptr %0, i64 -29
  %27 = load i8, ptr %26, align 1, !tbaa !14
  %28 = zext i8 %27 to i32
  %29 = shl nuw nsw i32 %10, 1
  %30 = add nuw nsw i32 %7, 2
  %31 = add nuw nsw i32 %30, %29
  %32 = add nuw nsw i32 %31, %13
  %33 = lshr i32 %32, 2
  %34 = trunc nuw i32 %33 to i8
  %35 = getelementptr inbounds nuw i8, ptr %0, i64 96
  store i8 %34, ptr %35, align 1, !tbaa !14
  %36 = shl nuw nsw i32 %7, 1
  %37 = add nuw nsw i32 %4, 2
  %38 = add nuw nsw i32 %37, %36
  %39 = add nuw nsw i32 %38, %10
  %40 = lshr i32 %39, 2
  %41 = trunc nuw i32 %40 to i8
  %42 = getelementptr inbounds nuw i8, ptr %0, i64 64
  store i8 %41, ptr %42, align 1, !tbaa !14
  %43 = getelementptr inbounds nuw i8, ptr %0, i64 97
  store i8 %41, ptr %43, align 1, !tbaa !14
  %44 = shl nuw nsw i32 %4, 1
  %45 = add nuw nsw i32 %30, %44
  %46 = add nuw nsw i32 %45, %16
  %47 = lshr i32 %46, 2
  %48 = trunc nuw i32 %47 to i8
  %49 = getelementptr inbounds nuw i8, ptr %0, i64 32
  store i8 %48, ptr %49, align 1, !tbaa !14
  %50 = getelementptr inbounds nuw i8, ptr %0, i64 65
  store i8 %48, ptr %50, align 1, !tbaa !14
  %51 = getelementptr inbounds nuw i8, ptr %0, i64 98
  store i8 %48, ptr %51, align 1, !tbaa !14
  %52 = shl nuw nsw i32 %16, 1
  %53 = add nuw nsw i32 %37, %19
  %54 = add nuw nsw i32 %53, %52
  %55 = lshr i32 %54, 2
  %56 = trunc nuw i32 %55 to i8
  store i8 %56, ptr %0, align 1, !tbaa !14
  %57 = getelementptr inbounds nuw i8, ptr %0, i64 33
  store i8 %56, ptr %57, align 1, !tbaa !14
  %58 = getelementptr inbounds nuw i8, ptr %0, i64 66
  store i8 %56, ptr %58, align 1, !tbaa !14
  %59 = getelementptr inbounds nuw i8, ptr %0, i64 99
  store i8 %56, ptr %59, align 1, !tbaa !14
  %60 = shl nuw nsw i32 %19, 1
  %61 = add nuw nsw i32 %16, 2
  %62 = add nuw nsw i32 %61, %22
  %63 = add nuw nsw i32 %62, %60
  %64 = lshr i32 %63, 2
  %65 = trunc nuw i32 %64 to i8
  %66 = getelementptr inbounds nuw i8, ptr %0, i64 1
  store i8 %65, ptr %66, align 1, !tbaa !14
  %67 = getelementptr inbounds nuw i8, ptr %0, i64 34
  store i8 %65, ptr %67, align 1, !tbaa !14
  %68 = getelementptr inbounds nuw i8, ptr %0, i64 67
  store i8 %65, ptr %68, align 1, !tbaa !14
  %69 = shl nuw nsw i32 %22, 1
  %70 = add nuw nsw i32 %19, 2
  %71 = add nuw nsw i32 %70, %25
  %72 = add nuw nsw i32 %71, %69
  %73 = lshr i32 %72, 2
  %74 = trunc nuw i32 %73 to i8
  %75 = getelementptr inbounds nuw i8, ptr %0, i64 2
  store i8 %74, ptr %75, align 1, !tbaa !14
  %76 = getelementptr inbounds nuw i8, ptr %0, i64 35
  store i8 %74, ptr %76, align 1, !tbaa !14
  %77 = shl nuw nsw i32 %25, 1
  %78 = add nuw nsw i32 %22, 2
  %79 = add nuw nsw i32 %78, %28
  %80 = add nuw nsw i32 %79, %77
  %81 = lshr i32 %80, 2
  %82 = trunc nuw i32 %81 to i8
  %83 = getelementptr inbounds nuw i8, ptr %0, i64 3
  store i8 %82, ptr %83, align 1, !tbaa !14
  ret void
}